target datalayout = "e-m:e-p270:32:32-p271:32:32-p272:64:64-i64:64-i128:128-f80:128-n8:16:32:64-S128"
target triple = "x86_64-pc-linux-gnu"

%struct.tag_MidiMessage = type { i64, i32, i32, %union.anon.1 }
%union.anon.1 = type { %struct.anon.2 }
%struct.anon.2 = type { i32, ptr, i32 }

; Function Attrs: nounwind uwtable
define hidden void @MIDI_IN_ReleaseMessage(ptr noundef %0, ptr noundef %1) #0 {
  %3 = alloca ptr, align 8
  %4 = alloca ptr, align 8
  store ptr %0, ptr %3, align 8
  store ptr %1, ptr %4, align 8
  %5 = load ptr, ptr %4, align 8
  %6 = icmp ne ptr %5, null
  br i1 %6, label %8, label %7

7:                                                ; preds = %2
  br label %26

8:                                                ; preds = %2
  %9 = load ptr, ptr %4, align 8
  %10 = getelementptr inbounds %struct.tag_MidiMessage, ptr %9, i32 0, i32 2
  %11 = load i32, ptr %10, align 4
  %12 = icmp eq i32 %11, 1
  br i1 %12, label %13, label %24

13:                                               ; preds = %8
  %14 = load ptr, ptr %4, align 8
  %15 = getelementptr inbounds %struct.tag_MidiMessage, ptr %14, i32 0, i32 3
  %16 = getelementptr inbounds %struct.anon.2, ptr %15, i32 0, i32 1
  %17 = load ptr, ptr %16, align 8
  %18 = icmp ne ptr %17, null
  br i1 %18, label %19, label %24

19:                                               ; preds = %13
  %20 = load ptr, ptr %4, align 8
  %21 = getelementptr inbounds %struct.tag_MidiMessage, ptr %20, i32 0, i32 3
  %22 = getelementptr inbounds %struct.anon.2, ptr %21, i32 0, i32 1
  %23 = load ptr, ptr %22, align 8
  call void @free(ptr noundef %23) #8
  br label %24

24:                                               ; preds = %19, %13, %8
  %25 = load ptr, ptr %4, align 8
  call void @free(ptr noundef %25) #8
  br label %26

26:                                               ; preds = %24, %7
  ret void
}