; Function Attrs: mustprogress nounwind willreturn uwtable
define hidden void @MIDI_IN_ReleaseMessage(ptr nocapture noundef readnone %0, ptr noundef %1) local_unnamed_addr #7 {
  %.not = icmp eq ptr %1, null
  br i1 %.not, label %12, label %3

3:                                                ; preds = %2
  %4 = getelementptr inbounds i8, ptr %1, i64 12
  %5 = load i32, ptr %4, align 4
  %6 = icmp eq i32 %5, 1
  br i1 %6, label %7, label %11

7:                                                ; preds = %3
  %8 = getelementptr inbounds i8, ptr %1, i64 24
  %9 = load ptr, ptr %8, align 8
  %.not6 = icmp eq ptr %9, null
  br i1 %.not6, label %11, label %10

10:                                               ; preds = %7
  tail call void @free(ptr noundef nonnull %9) #8
  br label %11

11:                                               ; preds = %10, %7, %3
  tail call void @free(ptr noundef nonnull %1) #8
  br label %12

12:                                               ; preds = %2, %11
  ret void
}